; ModuleID = '36/621.c'
source_filename = "36/621.c"
target datalayout = "e-m:e-p270:32:32-p271:32:32-p272:64:64-i64:64-f80:128-n8:16:32:64-S128"
target triple = "x86_64-pc-linux-gnu"

@.str = private unnamed_addr constant [5 x i8] c"%s%s\00", align 1
@.str.1 = private unnamed_addr constant [4 x i8] c"YES\00", align 1
@.str.2 = private unnamed_addr constant [3 x i8] c"NO\00", align 1

; Function Attrs: noinline nounwind uwtable
define dso_local void @main() #0 {
  %1 = alloca i32, align 4
  %2 = alloca i32, align 4
  %3 = alloca i32, align 4
  %4 = alloca i32, align 4
  %5 = alloca i32, align 4
  %6 = alloca i32, align 4
  %7 = alloca [100 x i8], align 16
  %8 = alloca [100 x i8], align 16
  %9 = alloca i8, align 1
  %10 = getelementptr inbounds [100 x i8], [100 x i8]* %7, i64 0, i64 0
  %11 = getelementptr inbounds [100 x i8], [100 x i8]* %8, i64 0, i64 0
  %12 = call i32 (i8*, ...) @__isoc99_scanf(i8* getelementptr inbounds ([5 x i8], [5 x i8]* @.str, i64 0, i64 0), i8* %10, i8* %11)
  %13 = getelementptr inbounds [100 x i8], [100 x i8]* %7, i64 0, i64 0
  %14 = call i64 @strlen(i8* %13) #3
  %15 = trunc i64 %14 to i32
  store i32 %15, i32* %1, align 4
  store i32 0, i32* %3, align 4
  br label %16

16:                                               ; preds = %65, %0
  %17 = load i32, i32* %3, align 4
  %18 = load i32, i32* %1, align 4
  %19 = sub nsw i32 %18, 1
  %20 = icmp slt i32 %17, %19
  br i1 %20, label %21, label %68

21:                                               ; preds = %16
  store i32 0, i32* %4, align 4
  br label %22

22:                                               ; preds = %61, %21
  %23 = load i32, i32* %4, align 4
  %24 = load i32, i32* %1, align 4
  %25 = sub nsw i32 %24, 1
  %26 = load i32, i32* %3, align 4
  %27 = sub nsw i32 %25, %26
  %28 = icmp slt i32 %23, %27
  br i1 %28, label %29, label %64

29:                                               ; preds = %22
  %30 = load i32, i32* %4, align 4
  %31 = sext i32 %30 to i64
  %32 = getelementptr inbounds [100 x i8], [100 x i8]* %7, i64 0, i64 %31
  %33 = load i8, i8* %32, align 1
  %34 = sext i8 %33 to i32
  %35 = load i32, i32* %4, align 4
  %36 = add nsw i32 %35, 1
  %37 = sext i32 %36 to i64
  %38 = getelementptr inbounds [100 x i8], [100 x i8]* %7, i64 0, i64 %37
  %39 = load i8, i8* %38, align 1
  %40 = sext i8 %39 to i32
  %41 = icmp sgt i32 %34, %40
  br i1 %41, label %42, label %60

42:                                               ; preds = %29
  %43 = load i32, i32* %4, align 4
  %44 = sext i32 %43 to i64
  %45 = getelementptr inbounds [100 x i8], [100 x i8]* %7, i64 0, i64 %44
  %46 = load i8, i8* %45, align 1
  store i8 %46, i8* %9, align 1
  %47 = load i32, i32* %4, align 4
  %48 = add nsw i32 %47, 1
  %49 = sext i32 %48 to i64
  %50 = getelementptr inbounds [100 x i8], [100 x i8]* %7, i64 0, i64 %49
  %51 = load i8, i8* %50, align 1
  %52 = load i32, i32* %4, align 4
  %53 = sext i32 %52 to i64
  %54 = getelementptr inbounds [100 x i8], [100 x i8]* %7, i64 0, i64 %53
  store i8 %51, i8* %54, align 1
  %55 = load i8, i8* %9, align 1
  %56 = load i32, i32* %4, align 4
  %57 = add nsw i32 %56, 1
  %58 = sext i32 %57 to i64
  %59 = getelementptr inbounds [100 x i8], [100 x i8]* %7, i64 0, i64 %58
  store i8 %55, i8* %59, align 1
  br label %60

60:                                               ; preds = %42, %29
  br label %61

61:                                               ; preds = %60
  %62 = load i32, i32* %4, align 4
  %63 = add nsw i32 %62, 1
  store i32 %63, i32* %4, align 4
  br label %22

64:                                               ; preds = %22
  br label %65

65:                                               ; preds = %64
  %66 = load i32, i32* %3, align 4
  %67 = add nsw i32 %66, 1
  store i32 %67, i32* %3, align 4
  br label %16

68:                                               ; preds = %16
  %69 = getelementptr inbounds [100 x i8], [100 x i8]* %8, i64 0, i64 0
  %70 = call i64 @strlen(i8* %69) #3
  %71 = trunc i64 %70 to i32
  store i32 %71, i32* %2, align 4
  store i32 0, i32* %5, align 4
  br label %72

72:                                               ; preds = %121, %68
  %73 = load i32, i32* %5, align 4
  %74 = load i32, i32* %2, align 4
  %75 = sub nsw i32 %74, 1
  %76 = icmp slt i32 %73, %75
  br i1 %76, label %77, label %124

77:                                               ; preds = %72
  store i32 0, i32* %6, align 4
  br label %78

78:                                               ; preds = %117, %77
  %79 = load i32, i32* %6, align 4
  %80 = load i32, i32* %2, align 4
  %81 = sub nsw i32 %80, 1
  %82 = load i32, i32* %5, align 4
  %83 = sub nsw i32 %81, %82
  %84 = icmp slt i32 %79, %83
  br i1 %84, label %85, label %120

85:                                               ; preds = %78
  %86 = load i32, i32* %6, align 4
  %87 = sext i32 %86 to i64
  %88 = getelementptr inbounds [100 x i8], [100 x i8]* %8, i64 0, i64 %87
  %89 = load i8, i8* %88, align 1
  %90 = sext i8 %89 to i32
  %91 = load i32, i32* %6, align 4
  %92 = add nsw i32 %91, 1
  %93 = sext i32 %92 to i64
  %94 = getelementptr inbounds [100 x i8], [100 x i8]* %8, i64 0, i64 %93
  %95 = load i8, i8* %94, align 1
  %96 = sext i8 %95 to i32
  %97 = icmp sgt i32 %90, %96
  br i1 %97, label %98, label %116

98:                                               ; preds = %85
  %99 = load i32, i32* %6, align 4
  %100 = sext i32 %99 to i64
  %101 = getelementptr inbounds [100 x i8], [100 x i8]* %8, i64 0, i64 %100
  %102 = load i8, i8* %101, align 1
  store i8 %102, i8* %9, align 1
  %103 = load i32, i32* %6, align 4
  %104 = add nsw i32 %103, 1
  %105 = sext i32 %104 to i64
  %106 = getelementptr inbounds [100 x i8], [100 x i8]* %8, i64 0, i64 %105
  %107 = load i8, i8* %106, align 1
  %108 = load i32, i32* %6, align 4
  %109 = sext i32 %108 to i64
  %110 = getelementptr inbounds [100 x i8], [100 x i8]* %8, i64 0, i64 %109
  store i8 %107, i8* %110, align 1
  %111 = load i8, i8* %9, align 1
  %112 = load i32, i32* %6, align 4
  %113 = add nsw i32 %112, 1
  %114 = sext i32 %113 to i64
  %115 = getelementptr inbounds [100 x i8], [100 x i8]* %8, i64 0, i64 %114
  store i8 %111, i8* %115, align 1
  br label %116

116:                                              ; preds = %98, %85
  br label %117

117:                                              ; preds = %116
  %118 = load i32, i32* %6, align 4
  %119 = add nsw i32 %118, 1
  store i32 %119, i32* %6, align 4
  br label %78

120:                                              ; preds = %78
  br label %121

121:                                              ; preds = %120
  %122 = load i32, i32* %5, align 4
  %123 = add nsw i32 %122, 1
  store i32 %123, i32* %5, align 4
  br label %72

124:                                              ; preds = %72
  %125 = getelementptr inbounds [100 x i8], [100 x i8]* %7, i64 0, i64 0
  %126 = getelementptr inbounds [100 x i8], [100 x i8]* %8, i64 0, i64 0
  %127 = call i32 @strcmp(i8* %125, i8* %126) #3
  %128 = icmp eq i32 %127, 0
  br i1 %128, label %129, label %131

129:                                              ; preds = %124
  %130 = call i32 (i8*, ...) @printf(i8* getelementptr inbounds ([4 x i8], [4 x i8]* @.str.1, i64 0, i64 0))
  br label %133

131:                                              ; preds = %124
  %132 = call i32 (i8*, ...) @printf(i8* getelementptr inbounds ([3 x i8], [3 x i8]* @.str.2, i64 0, i64 0))
  br label %133

133:                                              ; preds = %131, %129
  ret void
}

declare dso_local i32 @__isoc99_scanf(i8*, ...) #1

; Function Attrs: nounwind readonly
declare dso_local i64 @strlen(i8*) #2

; Function Attrs: nounwind readonly
declare dso_local i32 @strcmp(i8*, i8*) #2

declare dso_local i32 @printf(i8*, ...) #1


!llvm.module.flags = !{!0}
!llvm.ident = !{!1}

!0 = !{i32 1, !"wchar_size", i32 4}
!1 = !{!"clang version 10.0.0-4ubuntu1 "}
